target datalayout = "e-m:e-p270:32:32-p271:32:32-p272:64:64-i64:64-i128:128-f80:128-n8:16:32:64-S128"
target triple = "x86_64-pc-linux-gnu"

%struct._stritem = type { ptr, ptr, ptr, i32, i32, i32, i16, i16, i8, i8, [0 x %union.anon.12] }
%union.anon.12 = type { i64 }

; Function Attrs: nounwind uwtable
define dso_local ptr @limited_get_locked(ptr noundef %0, i64 noundef %1, ptr noundef %2, i1 noundef zeroext %3, ptr noundef %4, ptr noundef %5) #0 {
  %7 = alloca ptr, align 8
  %8 = alloca i64, align 8
  %9 = alloca ptr, align 8
  %10 = alloca i8, align 1
  %11 = alloca ptr, align 8
  %12 = alloca ptr, align 8
  %13 = alloca ptr, align 8
  store ptr %0, ptr %7, align 8, !tbaa !29
  store i64 %1, ptr %8, align 8, !tbaa !4
  store ptr %2, ptr %9, align 8, !tbaa !68
  %14 = zext i1 %3 to i8
  store i8 %14, ptr %10, align 1, !tbaa !57
  store ptr %4, ptr %11, align 8, !tbaa !185
  store ptr %5, ptr %12, align 8, !tbaa !330
  call void @llvm.lifetime.start.p0(i64 8, ptr %13) #15
  %15 = load ptr, ptr %7, align 8, !tbaa !29
  %16 = load i64, ptr %8, align 8, !tbaa !4
  %17 = load ptr, ptr %9, align 8, !tbaa !68
  %18 = load i8, ptr %10, align 1, !tbaa !57, !range !59, !noundef !60
  %19 = trunc i8 %18 to i1
  %20 = load ptr, ptr %11, align 8, !tbaa !185
  %21 = call ptr @item_get_locked(ptr noundef %15, i64 noundef %16, ptr noundef %17, i1 noundef zeroext %19, ptr noundef %20)
  store ptr %21, ptr %13, align 8, !tbaa !184
  %22 = load ptr, ptr %13, align 8, !tbaa !184
  %23 = icmp ne ptr %22, null
  br i1 %23, label %24, label %35

24:                                               ; preds = %6
  %25 = load ptr, ptr %13, align 8, !tbaa !184
  %26 = getelementptr inbounds nuw %struct._stritem, ptr %25, i32 0, i32 6
  %27 = load i16, ptr %26, align 4, !tbaa !79
  %28 = zext i16 %27 to i32
  %29 = icmp sgt i32 %28, 60000
  br i1 %29, label %30, label %35

30:                                               ; preds = %24
  %31 = load ptr, ptr %13, align 8, !tbaa !184
  call void @do_item_remove(ptr noundef %31)
  store ptr null, ptr %13, align 8, !tbaa !184
  %32 = load ptr, ptr %11, align 8, !tbaa !185
  %33 = load i32, ptr %32, align 4, !tbaa !8
  call void @item_unlock(i32 noundef %33)
  %34 = load ptr, ptr %12, align 8, !tbaa !330
  store i8 1, ptr %34, align 1, !tbaa !57
  br label %37

35:                                               ; preds = %24, %6
  %36 = load ptr, ptr %12, align 8, !tbaa !330
  store i8 0, ptr %36, align 1, !tbaa !57
  br label %37

37:                                               ; preds = %35, %30
  %38 = load ptr, ptr %13, align 8, !tbaa !184
  call void @llvm.lifetime.end.p0(i64 8, ptr %13) #15
  ret ptr %38
}