; Function Attrs: nounwind uwtable
define dso_local ptr @limited_get_locked(ptr noundef %0, i64 noundef %1, ptr noundef %2, i1 noundef zeroext %3, ptr noundef %4, ptr noundef writeonly captures(none) initializes((0, 1)) %5) local_unnamed_addr #1 {
  %7 = tail call ptr @item_get_locked(ptr noundef %0, i64 noundef %1, ptr noundef %2, i1 noundef zeroext %3, ptr noundef %4) #34
  %.not = icmp eq ptr %7, null
  br i1 %.not, label %14, label %8

8:                                                ; preds = %6
  %9 = getelementptr inbounds nuw i8, ptr %7, i64 36
  %10 = load i16, ptr %9, align 4, !tbaa !87
  %11 = icmp ugt i16 %10, -5536
  br i1 %11, label %12, label %14

12:                                               ; preds = %8
  tail call void @do_item_remove(ptr noundef nonnull %7) #34
  %13 = load i32, ptr %4, align 4, !tbaa !8
  tail call void @item_unlock(i32 noundef %13) #34
  br label %14

14:                                               ; preds = %6, %8, %12
  %storemerge = phi i8 [ 1, %12 ], [ 0, %8 ], [ 0, %6 ]
  %.0 = phi ptr [ null, %12 ], [ %7, %8 ], [ null, %6 ]
  store i8 %storemerge, ptr %5, align 1, !tbaa !160
  ret ptr %.0
}